0000000100001d48 s GCC_except_table0
0000000100001d74 s GCC_except_table1
0000000100001dc0 s GCC_except_table11
0000000100001e08 s GCC_except_table12
0000000100001e90 s GCC_except_table13
0000000100001d94 s GCC_except_table2
                 U __Unwind_Resume
0000000100000e90 T __Z9myFuntionv
0000000100000e30 T __ZN4Item5helloEv
0000000100000db0 T __ZN4ItemC1ENSt3__112basic_stringIcNS0_11char_traitsIcEENS0_9allocatorIcEEEE
0000000100000ce0 T __ZN4ItemC1Ev
0000000100000be0 T __ZN4ItemC2ENSt3__112basic_stringIcNS0_11char_traitsIcEENS0_9allocatorIcEEEE
0000000100000b10 T __ZN4ItemC2Ev
0000000100000e10 T __ZN4ItemD1Ev
0000000100000dd0 T __ZN4ItemD2Ev
                 U __ZNKSt3__16locale9use_facetERNS0_2idE
                 U __ZNKSt3__18ios_base6getlocEv
                 U __ZNSt3__112basic_stringIcNS_11char_traitsIcEENS_9allocatorIcEEE6__initEPKcm
                 U __ZNSt3__112basic_stringIcNS_11char_traitsIcEENS_9allocatorIcEEE6__initEmc
                 U __ZNSt3__112basic_stringIcNS_11char_traitsIcEENS_9allocatorIcEEED1Ev
                 U __ZNSt3__112basic_stringIcNS_11char_traitsIcEENS_9allocatorIcEEEaSERKS5_
                 U __ZNSt3__113basic_ostreamIcNS_11char_traitsIcEEE6sentryC1ERS3_
                 U __ZNSt3__113basic_ostreamIcNS_11char_traitsIcEEE6sentryD1Ev
0000000100001700 t __ZNSt3__116__pad_and_outputIcNS_11char_traitsIcEEEENS_19ostreambuf_iteratorIT_T0_EES6_PKS4_S8_S8_RNS_8ios_baseES4_
00000001000012b0 t __ZNSt3__124__put_character_sequenceIcNS_11char_traitsIcEEEERNS_13basic_ostreamIT_T0_EES7_PKS4_m
                 U __ZNSt3__14coutE
                 U __ZNSt3__15ctypeIcE2idE
                 U __ZNSt3__16localeD1Ev
                 U __ZNSt3__18ios_base33__set_badbit_and_consider_rethrowEv
                 U __ZNSt3__18ios_base5clearEj
0000000100001070 t __ZNSt3__1lsINS_11char_traitsIcEEEERNS_13basic_ostreamIcT_EES6_PKc
00000001000010c0 t __ZNSt3__1lsIcNS_11char_traitsIcEENS_9allocatorIcEEEERNS_13basic_ostreamIT_T0_EES9_RKNS_12basic_stringIS6_S7_T1_EE
                 U __ZSt9terminatev
00000001000020d8 S __ZTI4Item
0000000100001f11 S __ZTS4Item
00000001000020c0 S __ZTV4Item
                 U __ZTVN10__cxxabiv117__class_type_infoE
0000000100001c10 t ___clang_call_terminate
                 U ___cxa_begin_catch
                 U ___cxa_end_catch
                 U ___gxx_personality_v0
0000000100000000 T __mh_execute_header
0000000100000ef0 T _main
0000000100000ec0 T _myFoo
                 U _strlen
                 U dyld_stub_binder
